ARM GAS  C:\Users\basil\AppData\Local\Temp\cc1wggWv.s 			page 1


   1              		.cpu cortex-m4
   2              		.eabi_attribute 27, 1
   3              		.eabi_attribute 28, 1
   4              		.eabi_attribute 20, 1
   5              		.eabi_attribute 21, 1
   6              		.eabi_attribute 23, 3
   7              		.eabi_attribute 24, 1
   8              		.eabi_attribute 25, 1
   9              		.eabi_attribute 26, 1
  10              		.eabi_attribute 30, 2
  11              		.eabi_attribute 34, 1
  12              		.eabi_attribute 18, 4
  13              		.file	"audio_processing.c"
  14              		.text
  15              	.Ltext0:
  16              		.cfi_sections	.debug_frame
  17              		.section	.text.chprintf.constprop.0,"ax",%progbits
  18              		.align	1
  19              		.p2align 4,,15
  20              		.syntax unified
  21              		.thumb
  22              		.thumb_func
  23              		.fpu fpv4-sp-d16
  24              		.type	chprintf.constprop.0, %function
  25              	chprintf.constprop.0:
  26              	.LFB295:
  27              		.file 1 "../../lib/e-puck2_main-processor/ChibiOS//os/hal/lib/streams/chprintf.h"
  28              		.loc 1 69 0
  29              		.cfi_startproc
  30              		@ args = 4, pretend = 12, frame = 8
  31              		@ frame_needed = 0, uses_anonymous_args = 1
  32              	.LVL0:
  33 0000 0EB4     		push	{r1, r2, r3}
  34              		.cfi_def_cfa_offset 12
  35              		.cfi_offset 1, -12
  36              		.cfi_offset 2, -8
  37              		.cfi_offset 3, -4
  38 0002 10B5     		push	{r4, lr}
  39              		.cfi_def_cfa_offset 20
  40              		.cfi_offset 4, -20
  41              		.cfi_offset 14, -16
  42 0004 0A4C     		ldr	r4, .L6
  43              		.loc 1 74 0
  44 0006 0B49     		ldr	r1, .L6+4
  45              		.loc 1 69 0
  46 0008 2368     		ldr	r3, [r4]
  47              		.loc 1 74 0
  48 000a 0B48     		ldr	r0, .L6+8
  49              	.LVL1:
  50              		.loc 1 69 0
  51 000c 83B0     		sub	sp, sp, #12
  52              		.cfi_def_cfa_offset 32
  53              		.loc 1 69 0
  54 000e 0193     		str	r3, [sp, #4]
  55              	.LVL2:
  56              		.loc 1 73 0
  57 0010 06AB     		add	r3, sp, #24
ARM GAS  C:\Users\basil\AppData\Local\Temp\cc1wggWv.s 			page 2


  58              		.loc 1 74 0
  59 0012 1A46     		mov	r2, r3
  60              		.loc 1 73 0
  61 0014 0093     		str	r3, [sp]
  62              		.loc 1 74 0
  63 0016 FFF7FEFF 		bl	chvprintf
  64              	.LVL3:
  65              		.loc 1 78 0
  66 001a 019A     		ldr	r2, [sp, #4]
  67 001c 2368     		ldr	r3, [r4]
  68 001e 9A42     		cmp	r2, r3
  69 0020 04D1     		bne	.L5
  70 0022 03B0     		add	sp, sp, #12
  71              		.cfi_remember_state
  72              		.cfi_def_cfa_offset 20
  73              		@ sp needed
  74 0024 BDE81040 		pop	{r4, lr}
  75              		.cfi_restore 14
  76              		.cfi_restore 4
  77              		.cfi_def_cfa_offset 12
  78 0028 03B0     		add	sp, sp, #12
  79              		.cfi_restore 3
  80              		.cfi_restore 2
  81              		.cfi_restore 1
  82              		.cfi_def_cfa_offset 0
  83 002a 7047     		bx	lr
  84              	.L5:
  85              		.cfi_restore_state
  86 002c FFF7FEFF 		bl	__stack_chk_fail
  87              	.LVL4:
  88              	.L7:
  89              		.align	2
  90              	.L6:
  91 0030 00000000 		.word	__stack_chk_guard
  92 0034 00000000 		.word	.LC0
  93 0038 00000000 		.word	SDU1
  94              		.cfi_endproc
  95              	.LFE295:
  96              		.size	chprintf.constprop.0, .-chprintf.constprop.0
  97              		.section	.text.analyse_data,"ax",%progbits
  98              		.align	1
  99              		.p2align 4,,15
 100              		.global	analyse_data
 101              		.syntax unified
 102              		.thumb
 103              		.thumb_func
 104              		.fpu fpv4-sp-d16
 105              		.type	analyse_data, %function
 106              	analyse_data:
 107              	.LFB290:
 108              		.file 2 "audio_processing.c"
 109              		.loc 2 38 0
 110              		.cfi_startproc
 111              		@ args = 0, pretend = 0, frame = 8
 112              		@ frame_needed = 0, uses_anonymous_args = 0
 113              	.LVL5:
 114 0000 2DE9F041 		push	{r4, r5, r6, r7, r8, lr}
ARM GAS  C:\Users\basil\AppData\Local\Temp\cc1wggWv.s 			page 3


 115              		.cfi_def_cfa_offset 24
 116              		.cfi_offset 4, -24
 117              		.cfi_offset 5, -20
 118              		.cfi_offset 6, -16
 119              		.cfi_offset 7, -12
 120              		.cfi_offset 8, -8
 121              		.cfi_offset 14, -4
 122 0004 2DED048B 		vpush.64	{d8, d9}
 123              		.cfi_def_cfa_offset 40
 124              		.cfi_offset 80, -40
 125              		.cfi_offset 81, -36
 126              		.cfi_offset 82, -32
 127              		.cfi_offset 83, -28
 128 0008 3F4E     		ldr	r6, .L30
 129 000a 82B0     		sub	sp, sp, #8
 130              		.cfi_def_cfa_offset 48
 131              		.loc 2 38 0
 132 000c 3368     		ldr	r3, [r6]
 133 000e 0193     		str	r3, [sp, #4]
 134              	.LVL6:
 135              	.LBB30:
 136              		.loc 2 42 0
 137 0010 0029     		cmp	r1, #0
 138 0012 6ED0     		beq	.L8
 139 0014 4A1E     		subs	r2, r1, #1
 140 0016 93B2     		uxth	r3, r2
 141              	.LBE30:
 142              		.loc 2 40 0
 143 0018 DFED3C7A 		vldr.32	s15, .L30+4	@ int
 144 001c 021D     		adds	r2, r0, #4
 145 001e 02EB8302 		add	r2, r2, r3, lsl #2
 146              	.LBB31:
 147              		.loc 2 42 0
 148 0022 0346     		mov	r3, r0
 149              	.LVL7:
 150              	.L10:
 151              		.loc 2 43 0 discriminator 3
 152 0024 B3EC017A 		vldmia.32	r3!, {s14}
 153 0028 F8EEE77A 		vcvt.f32.s32	s15, s15
 154              	.LVL8:
 155              		.loc 2 42 0 discriminator 3
 156 002c 9342     		cmp	r3, r2
 157              		.loc 2 43 0 discriminator 3
 158 002e 77EE877A 		vadd.f32	s15, s15, s14
 159 0032 FCEEE77A 		vcvt.u32.f32	s15, s15
 160 0036 17EE904A 		vmov	r4, s15	@ int
 161 003a A4B2     		uxth	r4, r4
 162 003c 07EE904A 		vmov	s15, r4	@ int
 163              	.LVL9:
 164              		.loc 2 42 0 discriminator 3
 165 0040 F0D1     		bne	.L10
 166              	.LBE31:
 167              		.loc 2 46 0
 168 0042 07EE101A 		vmov	s14, r1	@ int
 169 0046 F8EE677A 		vcvt.f32.u32	s15, s15
 170              	.LVL10:
 171 004a B8EEC77A 		vcvt.f32.s32	s14, s14
ARM GAS  C:\Users\basil\AppData\Local\Temp\cc1wggWv.s 			page 4


 172              	.LBB32:
 173              		.loc 2 48 0
 174 004e B1F5007F 		cmp	r1, #512
 175              	.LBE32:
 176              		.loc 2 46 0
 177 0052 C7EE878A 		vdiv.f32	s17, s15, s14
 178              	.LVL11:
 179              	.LBB33:
 180              		.loc 2 48 0
 181 0056 4CD9     		bls	.L8
 182 0058 6FF40073 		mvn	r3, #512
 183 005c 1944     		add	r1, r1, r3
 184              	.LVL12:
 185 005e 89B2     		uxth	r1, r1
 186 0060 00F60408 		addw	r8, r0, #2052
 187              		.loc 2 57 0
 188 0064 2A4F     		ldr	r7, .L30+8
 189 0066 08EB8108 		add	r8, r8, r1, lsl #2
 190 006a 00F50064 		add	r4, r0, #2048
 191              	.LVL13:
 192              		.loc 2 49 0
 193 006e 0025     		movs	r5, #0
 194 0070 F0EE087A 		vmov.f32	s15, #3.0e+0
 195 0074 68EEA78A 		vmul.f32	s17, s17, s15
 196              	.LVL14:
 197              		.loc 2 52 0
 198 0078 DFED269A 		vldr.32	s19, .L30+12
 199              		.loc 2 56 0
 200 007c 9FED269A 		vldr.32	s18, .L30+16
 201 0080 08E0     		b	.L18
 202              	.LVL15:
 203              	.L14:
 204 0082 B4EEC98A 		vcmpe.f32	s16, s18
 205 0086 F1EE10FA 		vmrs	APSR_nzcv, FPSCR
 206 008a 28D4     		bmi	.L28
 207              	.LVL16:
 208              	.L12:
 209              		.loc 2 48 0 discriminator 2
 210 008c A045     		cmp	r8, r4
 211 008e A5F5FA55 		sub	r5, r5, #8000
 212 0092 2ED0     		beq	.L8
 213              	.L18:
 214              		.loc 2 49 0
 215 0094 F4EC017A 		vldmia.32	r4!, {s15}
 216 0098 F4EEE87A 		vcmpe.f32	s15, s17
 217 009c F1EE10FA 		vmrs	APSR_nzcv, FPSCR
 218 00a0 F4DD     		ble	.L12
 219              		.loc 2 50 0
 220 00a2 002D     		cmp	r5, #0
 221 00a4 2B46     		mov	r3, r5
 222 00a6 B8BF     		it	lt
 223 00a8 05F2FF13 		addwlt	r3, r5, #511
 224 00ac 5B12     		asrs	r3, r3, #9
 225 00ae 03F5FA53 		add	r3, r3, #8000
 226 00b2 07EE903A 		vmov	s15, r3	@ int
 227 00b6 B8EEE78A 		vcvt.f32.s32	s16, s15
 228              	.LVL17:
ARM GAS  C:\Users\basil\AppData\Local\Temp\cc1wggWv.s 			page 5


 229              		.loc 2 52 0
 230 00ba B4EEE98A 		vcmpe.f32	s16, s19
 231 00be F1EE10FA 		vmrs	APSR_nzcv, FPSCR
 232 00c2 DEDD     		ble	.L14
 233              		.loc 2 53 0
 234 00c4 4FF4E160 		mov	r0, #1800
 235 00c8 FFF7FEFF 		bl	left_motor_set_speed
 236              	.LVL18:
 237              		.loc 2 54 0
 238 00cc 4FF4E160 		mov	r0, #1800
 239 00d0 FFF7FEFF 		bl	right_motor_set_speed
 240              	.LVL19:
 241              		.loc 2 56 0
 242 00d4 B4EEC98A 		vcmpe.f32	s16, s18
 243 00d8 F1EE10FA 		vmrs	APSR_nzcv, FPSCR
 244 00dc D6D5     		bpl	.L12
 245              	.L28:
 246              		.loc 2 57 0
 247 00de 3846     		mov	r0, r7
 248 00e0 FFF7FEFF 		bl	left_motor_set_speed
 249              	.LVL20:
 250              		.loc 2 58 0
 251 00e4 3846     		mov	r0, r7
 252 00e6 FFF7FEFF 		bl	right_motor_set_speed
 253              	.LVL21:
 254              		.loc 2 48 0
 255 00ea A045     		cmp	r8, r4
 256 00ec A5F5FA55 		sub	r5, r5, #8000
 257 00f0 D0D1     		bne	.L18
 258              	.LVL22:
 259              	.L8:
 260              	.LBE33:
 261              		.loc 2 65 0
 262 00f2 019A     		ldr	r2, [sp, #4]
 263 00f4 3368     		ldr	r3, [r6]
 264 00f6 9A42     		cmp	r2, r3
 265 00f8 04D1     		bne	.L29
 266 00fa 02B0     		add	sp, sp, #8
 267              		.cfi_remember_state
 268              		.cfi_def_cfa_offset 40
 269              		@ sp needed
 270 00fc BDEC048B 		vldm	sp!, {d8-d9}
 271              		.cfi_restore 82
 272              		.cfi_restore 83
 273              		.cfi_restore 80
 274              		.cfi_restore 81
 275              		.cfi_def_cfa_offset 24
 276 0100 BDE8F081 		pop	{r4, r5, r6, r7, r8, pc}
 277              	.L29:
 278              		.cfi_restore_state
 279 0104 FFF7FEFF 		bl	__stack_chk_fail
 280              	.LVL23:
 281              	.L31:
 282              		.align	2
 283              	.L30:
 284 0108 00000000 		.word	__stack_chk_guard
 285 010c 00000000 		.word	0
ARM GAS  C:\Users\basil\AppData\Local\Temp\cc1wggWv.s 			page 6


 286 0110 F8F8FFFF 		.word	-1800
 287 0114 0080BB44 		.word	1153138688
 288 0118 0080A244 		.word	1151500288
 289              		.cfi_endproc
 290              	.LFE290:
 291              		.size	analyse_data, .-analyse_data
 292              		.section	.text.processAudioData,"ax",%progbits
 293              		.align	1
 294              		.p2align 4,,15
 295              		.global	processAudioData
 296              		.syntax unified
 297              		.thumb
 298              		.thumb_func
 299              		.fpu fpv4-sp-d16
 300              		.type	processAudioData, %function
 301              	processAudioData:
 302              	.LFB291:
 303              		.loc 2 67 0
 304              		.cfi_startproc
 305              		@ args = 0, pretend = 0, frame = 8
 306              		@ frame_needed = 0, uses_anonymous_args = 0
 307              	.LVL24:
 308 0000 2DE9F04F 		push	{r4, r5, r6, r7, r8, r9, r10, fp, lr}
 309              		.cfi_def_cfa_offset 36
 310              		.cfi_offset 4, -36
 311              		.cfi_offset 5, -32
 312              		.cfi_offset 6, -28
 313              		.cfi_offset 7, -24
 314              		.cfi_offset 8, -20
 315              		.cfi_offset 9, -16
 316              		.cfi_offset 10, -12
 317              		.cfi_offset 11, -8
 318              		.cfi_offset 14, -4
 319 0004 6A4E     		ldr	r6, .L52
 320 0006 6B4F     		ldr	r7, .L52+4
 321 0008 3368     		ldr	r3, [r6]
 322 000a 3A88     		ldrh	r2, [r7]
 323 000c 83B0     		sub	sp, sp, #12
 324              		.cfi_def_cfa_offset 48
 325              		.loc 2 67 0
 326 000e 0193     		str	r3, [sp, #4]
 327              	.LVL25:
 328              	.LBB49:
 329              		.loc 2 79 0
 330 0010 0029     		cmp	r1, #0
 331 0012 00F09680 		beq	.L33
 332 0016 DFF8AC91 		ldr	r9, .L52+20
 333 001a DFF8A081 		ldr	r8, .L52+12
 334 001e DFF8A8E1 		ldr	lr, .L52+24
 335 0022 DFF8A8C1 		ldr	ip, .L52+28
 336              		.loc 2 88 0
 337 0026 DFED647A 		vldr.32	s15, .L52+8
 338              		.loc 2 79 0
 339 002a 0025     		movs	r5, #0
 340 002c 04E0     		b	.L36
 341              	.LVL26:
 342              	.L34:
ARM GAS  C:\Users\basil\AppData\Local\Temp\cc1wggWv.s 			page 7


 343              		.loc 2 79 0 is_stmt 0 discriminator 2
 344 002e 0435     		adds	r5, r5, #4
 345              	.LVL27:
 346 0030 ADB2     		uxth	r5, r5
 347              	.LVL28:
 348 0032 A942     		cmp	r1, r5
 349 0034 40F28480 		bls	.L50
 350              	.LVL29:
 351              	.L36:
 352              		.loc 2 81 0 is_stmt 1
 353 0038 30F91530 		ldrsh	r3, [r0, r5, lsl #1]
 354 003c 07EE103A 		vmov	s14, r3	@ int
 355 0040 9400     		lsls	r4, r2, #2
 356 0042 B8EEC77A 		vcvt.f32.s32	s14, s14
 357 0046 09EB040A 		add	r10, r9, r4
 358              		.loc 2 82 0
 359 004a 00EB4503 		add	r3, r0, r5, lsl #1
 360              		.loc 2 81 0
 361 004e 8AED007A 		vstr.32	s14, [r10]
 362              		.loc 2 82 0
 363 0052 B3F902A0 		ldrsh	r10, [r3, #2]
 364 0056 07EE10AA 		vmov	s14, r10	@ int
 365 005a B8EEC77A 		vcvt.f32.s32	s14, s14
 366 005e 08EB040A 		add	r10, r8, r4
 367 0062 8AED007A 		vstr.32	s14, [r10]
 368              		.loc 2 83 0
 369 0066 B3F904A0 		ldrsh	r10, [r3, #4]
 370 006a 07EE10AA 		vmov	s14, r10	@ int
 371 006e B8EEC77A 		vcvt.f32.s32	s14, s14
 372 0072 0EEB040A 		add	r10, lr, r4
 373 0076 8AED007A 		vstr.32	s14, [r10]
 374              		.loc 2 84 0
 375 007a B3F90630 		ldrsh	r3, [r3, #6]
 376 007e 07EE103A 		vmov	s14, r3	@ int
 377              		.loc 2 88 0
 378 0082 531C     		adds	r3, r2, #1
 379 0084 9BB2     		uxth	r3, r3
 380              		.loc 2 84 0
 381 0086 B8EEC77A 		vcvt.f32.s32	s14, s14
 382              		.loc 2 93 0
 383 008a 0232     		adds	r2, r2, #2
 384              		.loc 2 88 0
 385 008c 9B00     		lsls	r3, r3, #2
 386              		.loc 2 84 0
 387 008e 6444     		add	r4, r4, ip
 388              		.loc 2 93 0
 389 0090 92B2     		uxth	r2, r2
 390              		.loc 2 84 0
 391 0092 84ED007A 		vstr.32	s14, [r4]
 392              		.loc 2 88 0
 393 0096 09EB030B 		add	fp, r9, r3
 394              		.loc 2 89 0
 395 009a 08EB030A 		add	r10, r8, r3
 396              		.loc 2 90 0
 397 009e 0EEB0304 		add	r4, lr, r3
 398              		.loc 2 95 0
 399 00a2 B2F5006F 		cmp	r2, #2048
ARM GAS  C:\Users\basil\AppData\Local\Temp\cc1wggWv.s 			page 8


 400              		.loc 2 91 0
 401 00a6 6344     		add	r3, r3, ip
 402              		.loc 2 88 0
 403 00a8 CBED007A 		vstr.32	s15, [fp]
 404              		.loc 2 89 0
 405 00ac CAED007A 		vstr.32	s15, [r10]
 406              		.loc 2 90 0
 407 00b0 C4ED007A 		vstr.32	s15, [r4]
 408              		.loc 2 91 0
 409 00b4 C3ED007A 		vstr.32	s15, [r3]
 410              		.loc 2 95 0
 411 00b8 B9D9     		bls	.L34
 412 00ba 3A80     		strh	r2, [r7]	@ movhi
 413              	.LVL30:
 414              	.L35:
 415              	.LBE49:
 416              		.loc 2 106 0
 417 00bc 3F49     		ldr	r1, .L52+12
 418              	.LVL31:
 419              		.loc 2 129 0
 420 00be 404C     		ldr	r4, .L52+16
 421              		.loc 2 106 0
 422 00c0 4FF48060 		mov	r0, #1024
 423              	.LVL32:
 424 00c4 FFF7FEFF 		bl	doFFT_optimized
 425              	.LVL33:
 426              		.loc 2 107 0
 427 00c8 3E49     		ldr	r1, .L52+20
 428 00ca 4FF48060 		mov	r0, #1024
 429 00ce FFF7FEFF 		bl	doFFT_optimized
 430              	.LVL34:
 431              		.loc 2 108 0
 432 00d2 3D49     		ldr	r1, .L52+24
 433 00d4 4FF48060 		mov	r0, #1024
 434 00d8 FFF7FEFF 		bl	doFFT_optimized
 435              	.LVL35:
 436              		.loc 2 109 0
 437 00dc 3B49     		ldr	r1, .L52+28
 438 00de 4FF48060 		mov	r0, #1024
 439 00e2 FFF7FEFF 		bl	doFFT_optimized
 440              	.LVL36:
 441              		.loc 2 117 0
 442 00e6 4FF48062 		mov	r2, #1024
 443 00ea 3949     		ldr	r1, .L52+32
 444 00ec 3348     		ldr	r0, .L52+12
 445 00ee FFF7FEFF 		bl	arm_cmplx_mag_f32
 446              	.LVL37:
 447              		.loc 2 118 0
 448 00f2 4FF48062 		mov	r2, #1024
 449 00f6 3749     		ldr	r1, .L52+36
 450 00f8 3248     		ldr	r0, .L52+20
 451 00fa FFF7FEFF 		bl	arm_cmplx_mag_f32
 452              	.LVL38:
 453              		.loc 2 119 0
 454 00fe 4FF48062 		mov	r2, #1024
 455 0102 3549     		ldr	r1, .L52+40
 456 0104 3048     		ldr	r0, .L52+24
ARM GAS  C:\Users\basil\AppData\Local\Temp\cc1wggWv.s 			page 9


 457 0106 FFF7FEFF 		bl	arm_cmplx_mag_f32
 458              	.LVL39:
 459              		.loc 2 120 0
 460 010a 4FF48062 		mov	r2, #1024
 461 010e 3349     		ldr	r1, .L52+44
 462 0110 2E48     		ldr	r0, .L52+28
 463 0112 FFF7FEFF 		bl	arm_cmplx_mag_f32
 464              	.LVL40:
 465              		.loc 2 129 0
 466 0116 2378     		ldrb	r3, [r4]	@ zero_extendqisi2
 467 0118 082B     		cmp	r3, #8
 468 011a 1CD8     		bhi	.L38
 469 011c 0133     		adds	r3, r3, #1
 470 011e DBB2     		uxtb	r3, r3
 471              	.L39:
 472              		.loc 2 137 0
 473 0120 0199     		ldr	r1, [sp, #4]
 474 0122 3268     		ldr	r2, [r6]
 475              		.loc 2 136 0
 476 0124 2370     		strb	r3, [r4]
 477              		.loc 2 137 0
 478 0126 9142     		cmp	r1, r2
 479              		.loc 2 135 0
 480 0128 4FF00003 		mov	r3, #0
 481 012c 3B80     		strh	r3, [r7]	@ movhi
 482              		.loc 2 137 0
 483 012e 3DD1     		bne	.L49
 484 0130 2848     		ldr	r0, .L52+36
 485 0132 4FF48061 		mov	r1, #1024
 486              		.loc 2 139 0
 487 0136 03B0     		add	sp, sp, #12
 488              		.cfi_remember_state
 489              		.cfi_def_cfa_offset 36
 490              		@ sp needed
 491 0138 BDE8F04F 		pop	{r4, r5, r6, r7, r8, r9, r10, fp, lr}
 492              		.cfi_restore 14
 493              		.cfi_restore 11
 494              		.cfi_restore 10
 495              		.cfi_restore 9
 496              		.cfi_restore 8
 497              		.cfi_restore 7
 498              		.cfi_restore 6
 499              		.cfi_restore 5
 500              		.cfi_restore 4
 501              		.cfi_def_cfa_offset 0
 502              		.loc 2 137 0
 503 013c FFF7FEBF 		b	analyse_data
 504              	.LVL41:
 505              	.L50:
 506              		.cfi_restore_state
 507 0140 3A80     		strh	r2, [r7]	@ movhi
 508              	.LVL42:
 509              	.L33:
 510              		.loc 2 100 0
 511 0142 B2F5006F 		cmp	r2, #2048
 512 0146 B9D2     		bcs	.L35
 513              		.loc 2 139 0
ARM GAS  C:\Users\basil\AppData\Local\Temp\cc1wggWv.s 			page 10


 514 0148 019A     		ldr	r2, [sp, #4]
 515 014a 3368     		ldr	r3, [r6]
 516 014c 9A42     		cmp	r2, r3
 517 014e 2DD1     		bne	.L49
 518 0150 03B0     		add	sp, sp, #12
 519              		.cfi_remember_state
 520              		.cfi_def_cfa_offset 36
 521              		@ sp needed
 522 0152 BDE8F08F 		pop	{r4, r5, r6, r7, r8, r9, r10, fp, pc}
 523              	.LVL43:
 524              	.L38:
 525              		.cfi_restore_state
 526              	.LBB50:
 527              	.LBB51:
 528              	.LBB52:
 529              	.LBB53:
 530              	.LBB54:
 531              	.LBB55:
 532              	.LBB56:
 533              		.file 3 "../../lib/e-puck2_main-processor/ChibiOS//os/ext/CMSIS/include/core_cmFunc.h"
 534              		.loc 3 546 0
 535 0156 2023     		movs	r3, #32
 536              		.syntax unified
 537              	@ 546 "../../lib/e-puck2_main-processor/ChibiOS//os/ext/CMSIS/include/core_cmFunc.h" 1
 538 0158 83F31188 		MSR basepri, r3
 539              	@ 0 "" 2
 540              	.LVL44:
 541              		.thumb
 542              		.syntax unified
 543              	.LBE56:
 544              	.LBE55:
 545              	.LBE54:
 546              		.file 4 "../../lib/e-puck2_main-processor/ChibiOS//os/rt/include/chsys.h"
 547              		.loc 4 349 0
 548 015c FFF7FEFF 		bl	_stats_start_measure_crit_thd
 549              	.LVL45:
 550              		.loc 4 350 0
 551 0160 FFF7FEFF 		bl	_dbg_check_lock
 552              	.LVL46:
 553              	.LBE53:
 554              	.LBE52:
 555              	.LBB57:
 556              	.LBB58:
 557              		.file 5 "../../lib/e-puck2_main-processor/ChibiOS//os/rt/include/chbsem.h"
 558              		.loc 5 268 0
 559 0164 FFF7FEFF 		bl	chDbgCheckClassI
 560              	.LVL47:
 561              		.loc 5 270 0
 562 0168 1D48     		ldr	r0, .L52+48
 563 016a 8368     		ldr	r3, [r0, #8]
 564 016c 002B     		cmp	r3, #0
 565 016e 1ADD     		ble	.L51
 566              	.L40:
 567              	.LVL48:
 568              	.LBE58:
 569              	.LBE57:
 570              		.loc 5 286 0
ARM GAS  C:\Users\basil\AppData\Local\Temp\cc1wggWv.s 			page 11


 571 0170 FFF7FEFF 		bl	chSchRescheduleS
 572              	.LVL49:
 573              	.LBB60:
 574              	.LBB61:
 575              		.loc 4 360 0
 576 0174 FFF7FEFF 		bl	_dbg_check_unlock
 577              	.LVL50:
 578              		.loc 4 361 0
 579 0178 FFF7FEFF 		bl	_stats_stop_measure_crit_thd
 580              	.LVL51:
 581              		.loc 4 367 0
 582 017c 194B     		ldr	r3, .L52+52
 583 017e 1A68     		ldr	r2, [r3]
 584 0180 9A42     		cmp	r2, r3
 585 0182 07D0     		beq	.L41
 586 0184 9969     		ldr	r1, [r3, #24]
 587 0186 9368     		ldr	r3, [r2, #8]
 588 0188 8A68     		ldr	r2, [r1, #8]
 589 018a 9A42     		cmp	r2, r3
 590 018c 02D2     		bcs	.L41
 591 018e 1648     		ldr	r0, .L52+56
 592 0190 FFF7FEFF 		bl	chSysHalt
 593              	.LVL52:
 594              	.L41:
 595              	.LBB62:
 596              	.LBB63:
 597              	.LBB64:
 598              		.loc 3 546 0
 599 0194 0023     		movs	r3, #0
 600              		.syntax unified
 601              	@ 546 "../../lib/e-puck2_main-processor/ChibiOS//os/ext/CMSIS/include/core_cmFunc.h" 1
 602 0196 83F31188 		MSR basepri, r3
 603              	@ 0 "" 2
 604              	.LVL53:
 605              		.thumb
 606              		.syntax unified
 607              	.LBE64:
 608              	.LBE63:
 609              	.LBE62:
 610              	.LBE61:
 611              	.LBE60:
 612              	.LBE51:
 613              	.LBE50:
 614              		.loc 2 132 0
 615 019a 1449     		ldr	r1, .L52+60
 616 019c 1448     		ldr	r0, .L52+64
 617 019e FFF7FEFF 		bl	chprintf.constprop.0
 618              	.LVL54:
 619 01a2 0123     		movs	r3, #1
 620 01a4 BCE7     		b	.L39
 621              	.LVL55:
 622              	.L51:
 623              	.LBB67:
 624              	.LBB66:
 625              	.LBB65:
 626              	.LBB59:
 627              		.loc 5 271 0
ARM GAS  C:\Users\basil\AppData\Local\Temp\cc1wggWv.s 			page 12


 628 01a6 FFF7FEFF 		bl	chSemSignalI
 629              	.LVL56:
 630 01aa E1E7     		b	.L40
 631              	.LVL57:
 632              	.L49:
 633              	.LBE59:
 634              	.LBE65:
 635              	.LBE66:
 636              	.LBE67:
 637              		.loc 2 139 0
 638 01ac FFF7FEFF 		bl	__stack_chk_fail
 639              	.LVL58:
 640              	.L53:
 641              		.align	2
 642              	.L52:
 643 01b0 00000000 		.word	__stack_chk_guard
 644 01b4 00000000 		.word	.LANCHOR0
 645 01b8 00000000 		.word	0
 646 01bc 00000000 		.word	micRight_cmplx_input
 647 01c0 00000000 		.word	.LANCHOR1
 648 01c4 00000000 		.word	micLeft_cmplx_input
 649 01c8 00000000 		.word	micFront_cmplx_input
 650 01cc 00000000 		.word	micBack_cmplx_input
 651 01d0 00000000 		.word	micRight_output
 652 01d4 00000000 		.word	micLeft_output
 653 01d8 00000000 		.word	micFront_output
 654 01dc 00000000 		.word	micBack_output
 655 01e0 00000000 		.word	.LANCHOR2
 656 01e4 00000000 		.word	ch
 657 01e8 00000000 		.word	.LANCHOR3
 658 01ec 00000000 		.word	.LC0
 659 01f0 00000000 		.word	SDU1
 660              		.cfi_endproc
 661              	.LFE291:
 662              		.size	processAudioData, .-processAudioData
 663              		.section	.text.wait_send_to_computer,"ax",%progbits
 664              		.align	1
 665              		.p2align 4,,15
 666              		.global	wait_send_to_computer
 667              		.syntax unified
 668              		.thumb
 669              		.thumb_func
 670              		.fpu fpv4-sp-d16
 671              		.type	wait_send_to_computer, %function
 672              	wait_send_to_computer:
 673              	.LFB292:
 674              		.loc 2 141 0
 675              		.cfi_startproc
 676              		@ args = 0, pretend = 0, frame = 8
 677              		@ frame_needed = 0, uses_anonymous_args = 0
 678 0000 00B5     		push	{lr}
 679              		.cfi_def_cfa_offset 4
 680              		.cfi_offset 14, -4
 681 0002 084B     		ldr	r3, .L59
 682 0004 83B0     		sub	sp, sp, #12
 683              		.cfi_def_cfa_offset 16
 684              		.loc 2 141 0
ARM GAS  C:\Users\basil\AppData\Local\Temp\cc1wggWv.s 			page 13


 685 0006 1A68     		ldr	r2, [r3]
 686 0008 0192     		str	r2, [sp, #4]
 687              	.LVL59:
 688              	.LBB68:
 689              	.LBB69:
 690              		.loc 5 143 0
 691 000a 019A     		ldr	r2, [sp, #4]
 692 000c 1B68     		ldr	r3, [r3]
 693 000e 9A42     		cmp	r2, r3
 694 0010 05D1     		bne	.L58
 695 0012 0548     		ldr	r0, .L59+4
 696              	.LBE69:
 697              	.LBE68:
 698              		.loc 2 143 0
 699 0014 03B0     		add	sp, sp, #12
 700              		.cfi_remember_state
 701              		.cfi_def_cfa_offset 4
 702              		@ sp needed
 703 0016 5DF804EB 		ldr	lr, [sp], #4
 704              		.cfi_restore 14
 705              		.cfi_def_cfa_offset 0
 706              	.LBB71:
 707              	.LBB70:
 708              		.loc 5 143 0
 709 001a FFF7FEBF 		b	chSemWait
 710              	.LVL60:
 711              	.L58:
 712              		.cfi_restore_state
 713 001e FFF7FEFF 		bl	__stack_chk_fail
 714              	.LVL61:
 715              	.L60:
 716 0022 00BF     		.align	2
 717              	.L59:
 718 0024 00000000 		.word	__stack_chk_guard
 719 0028 00000000 		.word	.LANCHOR2
 720              	.LBE70:
 721              	.LBE71:
 722              		.cfi_endproc
 723              	.LFE292:
 724              		.size	wait_send_to_computer, .-wait_send_to_computer
 725              		.section	.text.get_audio_buffer_ptr,"ax",%progbits
 726              		.align	1
 727              		.p2align 4,,15
 728              		.global	get_audio_buffer_ptr
 729              		.syntax unified
 730              		.thumb
 731              		.thumb_func
 732              		.fpu fpv4-sp-d16
 733              		.type	get_audio_buffer_ptr, %function
 734              	get_audio_buffer_ptr:
 735              	.LFB293:
 736              		.loc 2 145 0
 737              		.cfi_startproc
 738              		@ args = 0, pretend = 0, frame = 8
 739              		@ frame_needed = 0, uses_anonymous_args = 0
 740              	.LVL62:
 741 0000 00B5     		push	{lr}
ARM GAS  C:\Users\basil\AppData\Local\Temp\cc1wggWv.s 			page 14


 742              		.cfi_def_cfa_offset 4
 743              		.cfi_offset 14, -4
 744 0002 164B     		ldr	r3, .L74
 745 0004 83B0     		sub	sp, sp, #12
 746              		.cfi_def_cfa_offset 16
 747              		.loc 2 145 0
 748 0006 1A68     		ldr	r2, [r3]
 749 0008 0192     		str	r2, [sp, #4]
 750              		.loc 2 146 0
 751 000a 88B1     		cbz	r0, .L64
 752              		.loc 2 149 0
 753 000c 0128     		cmp	r0, #1
 754 000e 17D0     		beq	.L65
 755              		.loc 2 152 0
 756 0010 0228     		cmp	r0, #2
 757 0012 19D0     		beq	.L66
 758              		.loc 2 155 0
 759 0014 0328     		cmp	r0, #3
 760 0016 15D0     		beq	.L67
 761              		.loc 2 158 0
 762 0018 0428     		cmp	r0, #4
 763 001a 17D0     		beq	.L68
 764              		.loc 2 161 0
 765 001c 0528     		cmp	r0, #5
 766 001e 17D0     		beq	.L69
 767              		.loc 2 164 0
 768 0020 0628     		cmp	r0, #6
 769 0022 17D0     		beq	.L70
 770              		.loc 2 171 0
 771 0024 0E4A     		ldr	r2, .L74+4
 772              		.loc 2 167 0
 773 0026 0728     		cmp	r0, #7
 774              		.loc 2 171 0
 775 0028 0CBF     		ite	eq
 776 002a 1046     		moveq	r0, r2
 777              	.LVL63:
 778 002c 0020     		movne	r0, #0
 779 002e 00E0     		b	.L61
 780              	.LVL64:
 781              	.L64:
 782              		.loc 2 147 0
 783 0030 0C48     		ldr	r0, .L74+8
 784              	.LVL65:
 785              	.L61:
 786              		.loc 2 173 0
 787 0032 019A     		ldr	r2, [sp, #4]
 788 0034 1B68     		ldr	r3, [r3]
 789 0036 9A42     		cmp	r2, r3
 790 0038 0ED1     		bne	.L73
 791 003a 03B0     		add	sp, sp, #12
 792              		.cfi_remember_state
 793              		.cfi_def_cfa_offset 4
 794              		@ sp needed
 795 003c 5DF804FB 		ldr	pc, [sp], #4
 796              	.LVL66:
 797              	.L65:
 798              		.cfi_restore_state
ARM GAS  C:\Users\basil\AppData\Local\Temp\cc1wggWv.s 			page 15


 799              		.loc 2 150 0
 800 0040 0948     		ldr	r0, .L74+12
 801              	.LVL67:
 802 0042 F6E7     		b	.L61
 803              	.LVL68:
 804              	.L67:
 805              		.loc 2 156 0
 806 0044 0948     		ldr	r0, .L74+16
 807              	.LVL69:
 808 0046 F4E7     		b	.L61
 809              	.LVL70:
 810              	.L66:
 811              		.loc 2 153 0
 812 0048 0948     		ldr	r0, .L74+20
 813              	.LVL71:
 814 004a F2E7     		b	.L61
 815              	.LVL72:
 816              	.L68:
 817              		.loc 2 159 0
 818 004c 0948     		ldr	r0, .L74+24
 819              	.LVL73:
 820 004e F0E7     		b	.L61
 821              	.LVL74:
 822              	.L69:
 823              		.loc 2 162 0
 824 0050 0948     		ldr	r0, .L74+28
 825              	.LVL75:
 826 0052 EEE7     		b	.L61
 827              	.LVL76:
 828              	.L70:
 829              		.loc 2 165 0
 830 0054 0948     		ldr	r0, .L74+32
 831              	.LVL77:
 832 0056 ECE7     		b	.L61
 833              	.L73:
 834              		.loc 2 173 0
 835 0058 FFF7FEFF 		bl	__stack_chk_fail
 836              	.LVL78:
 837              	.L75:
 838              		.align	2
 839              	.L74:
 840 005c 00000000 		.word	__stack_chk_guard
 841 0060 00000000 		.word	micBack_output
 842 0064 00000000 		.word	micLeft_cmplx_input
 843 0068 00000000 		.word	micRight_cmplx_input
 844 006c 00000000 		.word	micBack_cmplx_input
 845 0070 00000000 		.word	micFront_cmplx_input
 846 0074 00000000 		.word	micLeft_output
 847 0078 00000000 		.word	micRight_output
 848 007c 00000000 		.word	micFront_output
 849              		.cfi_endproc
 850              	.LFE293:
 851              		.size	get_audio_buffer_ptr, .-get_audio_buffer_ptr
 852              		.section	.bss.micBack_cmplx_input,"aw",%nobits
 853              		.align	2
 854              		.type	micBack_cmplx_input, %object
 855              		.size	micBack_cmplx_input, 8192
ARM GAS  C:\Users\basil\AppData\Local\Temp\cc1wggWv.s 			page 16


 856              	micBack_cmplx_input:
 857 0000 00000000 		.space	8192
 857      00000000 
 857      00000000 
 857      00000000 
 857      00000000 
 858              		.section	.bss.micBack_output,"aw",%nobits
 859              		.align	2
 860              		.type	micBack_output, %object
 861              		.size	micBack_output, 4096
 862              	micBack_output:
 863 0000 00000000 		.space	4096
 863      00000000 
 863      00000000 
 863      00000000 
 863      00000000 
 864              		.section	.bss.micFront_cmplx_input,"aw",%nobits
 865              		.align	2
 866              		.type	micFront_cmplx_input, %object
 867              		.size	micFront_cmplx_input, 8192
 868              	micFront_cmplx_input:
 869 0000 00000000 		.space	8192
 869      00000000 
 869      00000000 
 869      00000000 
 869      00000000 
 870              		.section	.bss.micFront_output,"aw",%nobits
 871              		.align	2
 872              		.type	micFront_output, %object
 873              		.size	micFront_output, 4096
 874              	micFront_output:
 875 0000 00000000 		.space	4096
 875      00000000 
 875      00000000 
 875      00000000 
 875      00000000 
 876              		.section	.bss.micLeft_cmplx_input,"aw",%nobits
 877              		.align	2
 878              		.type	micLeft_cmplx_input, %object
 879              		.size	micLeft_cmplx_input, 8192
 880              	micLeft_cmplx_input:
 881 0000 00000000 		.space	8192
 881      00000000 
 881      00000000 
 881      00000000 
 881      00000000 
 882              		.section	.bss.micLeft_output,"aw",%nobits
 883              		.align	2
 884              		.type	micLeft_output, %object
 885              		.size	micLeft_output, 4096
 886              	micLeft_output:
 887 0000 00000000 		.space	4096
 887      00000000 
 887      00000000 
 887      00000000 
 887      00000000 
 888              		.section	.bss.micRight_cmplx_input,"aw",%nobits
ARM GAS  C:\Users\basil\AppData\Local\Temp\cc1wggWv.s 			page 17


 889              		.align	2
 890              		.type	micRight_cmplx_input, %object
 891              		.size	micRight_cmplx_input, 8192
 892              	micRight_cmplx_input:
 893 0000 00000000 		.space	8192
 893      00000000 
 893      00000000 
 893      00000000 
 893      00000000 
 894              		.section	.bss.micRight_output,"aw",%nobits
 895              		.align	2
 896              		.type	micRight_output, %object
 897              		.size	micRight_output, 4096
 898              	micRight_output:
 899 0000 00000000 		.space	4096
 899      00000000 
 899      00000000 
 899      00000000 
 899      00000000 
 900              		.section	.bss.mustSend.14179,"aw",%nobits
 901              		.set	.LANCHOR1,. + 0
 902              		.type	mustSend.14179, %object
 903              		.size	mustSend.14179, 1
 904              	mustSend.14179:
 905 0000 00       		.space	1
 906              		.section	.bss.nb_sample.14178,"aw",%nobits
 907              		.align	1
 908              		.set	.LANCHOR0,. + 0
 909              		.type	nb_sample.14178, %object
 910              		.size	nb_sample.14178, 2
 911              	nb_sample.14178:
 912 0000 0000     		.space	2
 913              		.section	.data.sendToComputer_sem,"aw",%progbits
 914              		.align	2
 915              		.set	.LANCHOR2,. + 0
 916              		.type	sendToComputer_sem, %object
 917              		.size	sendToComputer_sem, 12
 918              	sendToComputer_sem:
 919 0000 00000000 		.word	sendToComputer_sem
 920 0004 00000000 		.word	sendToComputer_sem
 921 0008 00000000 		.word	0
 922              		.section	.rodata.__func__.7153,"a",%progbits
 923              		.align	2
 924              		.set	.LANCHOR3,. + 0
 925              		.type	__func__.7153, %object
 926              		.size	__func__.7153, 12
 927              	__func__.7153:
 928 0000 63685379 		.ascii	"chSysUnlock\000"
 928      73556E6C 
 928      6F636B00 
 929              		.section	.rodata.chprintf.constprop.0.str1.4,"aMS",%progbits,1
 930              		.align	2
 931              	.LC0:
 932 0000 426F6E73 		.ascii	"Bonsoir\000"
 932      6F697200 
 933              		.text
 934              	.Letext0:
ARM GAS  C:\Users\basil\AppData\Local\Temp\cc1wggWv.s 			page 18


 935              		.file 6 "c:\\users\\basil\\documents\\tp_robotique\\eclipse_e-puck2\\tools\\gcc-arm-none-eabi-7-20
 936              		.file 7 "c:\\users\\basil\\documents\\tp_robotique\\eclipse_e-puck2\\tools\\gcc-arm-none-eabi-7-20
 937              		.file 8 "c:\\users\\basil\\documents\\tp_robotique\\eclipse_e-puck2\\tools\\gcc-arm-none-eabi-7-20
 938              		.file 9 "../../lib/e-puck2_main-processor/ChibiOS//os/rt/ports/ARMCMx/compilers/GCC/chtypes.h"
 939              		.file 10 "../../lib/e-puck2_main-processor/ChibiOS//os/rt/include/chsystypes.h"
 940              		.file 11 "../../lib/e-puck2_main-processor/ChibiOS//os/rt/include/chschd.h"
 941              		.file 12 "../../lib/e-puck2_main-processor/ChibiOS//os/ext/CMSIS/include/core_cm4.h"
 942              		.file 13 "../../lib/e-puck2_main-processor/ChibiOS//os/ext/CMSIS/ST/system_stm32f4xx.h"
 943              		.file 14 "../../lib/e-puck2_main-processor/ChibiOS//os/ext/CMSIS/ST/stm32f407xx.h"
 944              		.file 15 "../../lib/e-puck2_main-processor/ChibiOS//os/rt/ports/ARMCMx/chcore.h"
 945              		.file 16 "../../lib/e-puck2_main-processor/ChibiOS//os/rt/ports/ARMCMx/chcore_v7m.h"
 946              		.file 17 "../../lib/e-puck2_main-processor/ChibiOS//os/rt/include/chdebug.h"
 947              		.file 18 "../../lib/e-puck2_main-processor/ChibiOS//os/rt/include/chtm.h"
 948              		.file 19 "../../lib/e-puck2_main-processor/ChibiOS//os/rt/include/chstats.h"
 949              		.file 20 "../../lib/e-puck2_main-processor/ChibiOS//os/rt/include/chsem.h"
 950              		.file 21 "../../lib/e-puck2_main-processor/ChibiOS//os/rt/include/chmtx.h"
 951              		.file 22 "../../lib/e-puck2_main-processor/ChibiOS//os/rt/include/chregistry.h"
 952              		.file 23 "../../lib/e-puck2_main-processor/ChibiOS//os/rt/include/chevents.h"
 953              		.file 24 "../../lib/e-puck2_main-processor/ChibiOS//os/rt/include/chqueues.h"
 954              		.file 25 "../../lib/e-puck2_main-processor/ChibiOS//os/rt/include/chstreams.h"
 955              		.file 26 "../../lib/e-puck2_main-processor/ChibiOS//os/hal/ports/STM32/STM32F4xx/stm32_dma.h"
 956              		.file 27 "../../lib/e-puck2_main-processor/ChibiOS//os/hal/include/hal_ioblock.h"
 957              		.file 28 "../../lib/e-puck2_main-processor/ChibiOS//os/hal/ports/STM32/LLD/GPIOv2/pal_lld.h"
 958              		.file 29 "../../lib/e-puck2_main-processor/ChibiOS//os/hal/include/adc.h"
 959              		.file 30 "../../lib/e-puck2_main-processor/ChibiOS//os/hal/ports/STM32/STM32F4xx/adc_lld.h"
 960              		.file 31 "../../lib/e-puck2_main-processor/ChibiOS//os/hal/include/can.h"
 961              		.file 32 "../../lib/e-puck2_main-processor/ChibiOS//os/hal/ports/STM32/LLD/can_lld.h"
 962              		.file 33 "../../lib/e-puck2_main-processor/ChibiOS//os/hal/include/dac.h"
 963              		.file 34 "../../lib/e-puck2_main-processor/ChibiOS//os/hal/ports/STM32/LLD/DACv1/dac_lld.h"
 964              		.file 35 "../../lib/e-puck2_main-processor/ChibiOS//os/hal/include/ext.h"
 965              		.file 36 "../../lib/e-puck2_main-processor/ChibiOS//os/hal/ports/STM32/LLD/ext_lld.h"
 966              		.file 37 "../../lib/e-puck2_main-processor/ChibiOS//os/hal/include/gpt.h"
 967              		.file 38 "../../lib/e-puck2_main-processor/ChibiOS//os/hal/ports/STM32/LLD/TIMv1/gpt_lld.h"
 968              		.file 39 "../../lib/e-puck2_main-processor/ChibiOS//os/hal/ports/STM32/LLD/TIMv1/stm32_tim.h"
 969              		.file 40 "../../lib/e-puck2_main-processor/ChibiOS//os/hal/include/i2c.h"
 970              		.file 41 "../../lib/e-puck2_main-processor/ChibiOS//os/hal/ports/STM32/LLD/I2Cv1/i2c_lld.h"
 971              		.file 42 "../../lib/e-puck2_main-processor/ChibiOS//os/hal/include/i2s.h"
 972              		.file 43 "../../lib/e-puck2_main-processor/ChibiOS//os/hal/ports/STM32/LLD/SPIv1/i2s_lld.h"
 973              		.file 44 "../../lib/e-puck2_main-processor/ChibiOS//os/hal/include/pwm.h"
 974              		.file 45 "../../lib/e-puck2_main-processor/ChibiOS//os/hal/ports/STM32/LLD/TIMv1/pwm_lld.h"
 975              		.file 46 "../../lib/e-puck2_main-processor/ChibiOS//os/hal/include/serial.h"
 976              		.file 47 "../../lib/e-puck2_main-processor/ChibiOS//os/hal/ports/STM32/LLD/USARTv1/serial_lld.h"
 977              		.file 48 "../../lib/e-puck2_main-processor/ChibiOS//os/hal/include/sdc.h"
 978              		.file 49 "../../lib/e-puck2_main-processor/ChibiOS//os/hal/ports/STM32/LLD/sdc_lld.h"
 979              		.file 50 "../../lib/e-puck2_main-processor/ChibiOS//os/hal/include/spi.h"
 980              		.file 51 "../../lib/e-puck2_main-processor/ChibiOS//os/hal/ports/STM32/LLD/SPIv1/spi_lld.h"
 981              		.file 52 "../../lib/e-puck2_main-processor/ChibiOS//os/hal/include/usb.h"
 982              		.file 53 "../../lib/e-puck2_main-processor/ChibiOS//os/hal/ports/STM32/LLD/OTGv1/usb_lld.h"
 983              		.file 54 "../../lib/e-puck2_main-processor/ChibiOS//os/hal/ports/STM32/LLD/OTGv1/stm32_otg.h"
 984              		.file 55 "../../lib/e-puck2_main-processor/ChibiOS//os/hal/include/serial_usb.h"
 985              		.file 56 "../../lib/e-puck2_main-processor/ChibiOS_ext/os/hal/include/../ports/STM32/STM32F4xx/dcm
 986              		.file 57 "c:\\users\\basil\\documents\\tp_robotique\\eclipse_e-puck2\\tools\\gcc-arm-none-eabi-7-2
 987              		.file 58 "c:\\users\\basil\\documents\\tp_robotique\\eclipse_e-puck2\\tools\\gcc-arm-none-eabi-7-2
 988              		.file 59 "<built-in>"
 989              		.file 60 "c:\\users\\basil\\documents\\tp_robotique\\eclipse_e-puck2\\tools\\gcc-arm-none-eabi-7-2
 990              		.file 61 "../../lib/e-puck2_main-processor/src/msgbus/messagebus.h"
 991              		.file 62 "c:\\users\\basil\\documents\\tp_robotique\\eclipse_e-puck2\\tools\\gcc-arm-none-eabi-7-2
ARM GAS  C:\Users\basil\AppData\Local\Temp\cc1wggWv.s 			page 19


 992              		.file 63 "c:\\users\\basil\\documents\\tp_robotique\\eclipse_e-puck2\\tools\\gcc-arm-none-eabi-7-2
 993              		.file 64 "../../lib/e-puck2_main-processor/src/parameter/parameter.h"
 994              		.file 65 "./main.h"
 995              		.file 66 "../../lib/e-puck2_main-processor/src/usbcfg.h"
 996              		.file 67 "c:\\users\\basil\\documents\\tp_robotique\\eclipse_e-puck2\\tools\\gcc-arm-none-eabi-7-2
 997              		.file 68 "./audio_processing.h"
 998              		.file 69 "c:\\users\\basil\\documents\\tp_robotique\\eclipse_e-puck2\\tools\\gcc-arm-none-eabi-7-2
 999              		.file 70 "./fft.h"
 1000              		.file 71 "../../lib/e-puck2_main-processor/ChibiOS//os/ext/CMSIS/include/arm_math.h"
 1001              		.file 72 "../../lib/e-puck2_main-processor/src/motors.h"